target datalayout = "e-m:e-p270:32:32-p271:32:32-p272:64:64-i64:64-i128:128-f80:128-n8:16:32:64-S128"
target triple = "x86_64-pc-linux-gnu"

%"class.std::__cxx11::basic_string" = type { %"struct.std::__cxx11::basic_string<char>::_Alloc_hider", i64, %union.anon }
%"struct.std::__cxx11::basic_string<char>::_Alloc_hider" = type { ptr }
%union.anon = type { i64, [8 x i8] }
%"class.cv::FileStorage::Impl" = type <{ %"class.cv::FileStorage_API", ptr, %"class.std::__cxx11::basic_string", i32, i8, [3 x i8], ptr, ptr, i8, i8, i8, i8, i32, i32, i8, i8, [2 x i8], ptr, i32, [4 x i8], ptr, i32, i32, i32, [4 x i8], %"class.std::deque", %"class.std::vector", i64, %"class.std::deque.3", %"struct.cv::Ptr", %"struct.cv::Ptr.6", %"class.cv::FileStorage::Impl::Base64Decoder", ptr, %"class.std::vector.15", %"class.std::vector.20", %"class.std::vector.25", %"class.std::vector.30", i64, %"class.std::unordered_map", %"class.std::vector", %"class.std::vector", ptr, i64, i64, i32, [4 x i8] }>
%"class.cv::FileStorage_API" = type { ptr }
%"class.std::deque" = type { %"class.std::_Deque_base" }
%"class.std::_Deque_base" = type { %"struct.std::_Deque_base<cv::FStructData, std::allocator<cv::FStructData>>::_Deque_impl" }
%"struct.std::_Deque_base<cv::FStructData, std::allocator<cv::FStructData>>::_Deque_impl" = type { %"struct.std::_Deque_base<cv::FStructData, std::allocator<cv::FStructData>>::_Deque_impl_data" }
%"struct.std::_Deque_base<cv::FStructData, std::allocator<cv::FStructData>>::_Deque_impl_data" = type { ptr, i64, %"struct.std::_Deque_iterator", %"struct.std::_Deque_iterator" }
%"struct.std::_Deque_iterator" = type { ptr, ptr, ptr, ptr }
%"class.std::deque.3" = type { %"class.std::_Deque_base.4" }
%"class.std::_Deque_base.4" = type { %"struct.std::_Deque_base<char, std::allocator<char>>::_Deque_impl" }
%"struct.std::_Deque_base<char, std::allocator<char>>::_Deque_impl" = type { %"struct.std::_Deque_base<char, std::allocator<char>>::_Deque_impl_data" }
%"struct.std::_Deque_base<char, std::allocator<char>>::_Deque_impl_data" = type { ptr, i64, %"struct.std::_Deque_iterator.5", %"struct.std::_Deque_iterator.5" }
%"struct.std::_Deque_iterator.5" = type { ptr, ptr, ptr, ptr }
%"struct.cv::Ptr" = type { %"class.std::shared_ptr" }
%"class.std::shared_ptr" = type { %"class.std::__shared_ptr" }
%"class.std::__shared_ptr" = type { ptr, %"class.std::__shared_count" }
%"class.std::__shared_count" = type { ptr }
%"struct.cv::Ptr.6" = type { %"class.std::shared_ptr.7" }
%"class.std::shared_ptr.7" = type { %"class.std::__shared_ptr.8" }
%"class.std::__shared_ptr.8" = type { ptr, %"class.std::__shared_count" }
%"class.cv::FileStorage::Impl::Base64Decoder" = type <{ %"struct.cv::Ptr.6", ptr, i32, [4 x i8], %"class.std::vector", %"class.std::vector.10", i64, i64, i8, [7 x i8] }>
%"class.std::vector.10" = type { %"struct.std::_Vector_base.11" }
%"struct.std::_Vector_base.11" = type { %"struct.std::_Vector_base<unsigned char, std::allocator<unsigned char>>::_Vector_impl" }
%"struct.std::_Vector_base<unsigned char, std::allocator<unsigned char>>::_Vector_impl" = type { %"struct.std::_Vector_base<unsigned char, std::allocator<unsigned char>>::_Vector_impl_data" }
%"struct.std::_Vector_base<unsigned char, std::allocator<unsigned char>>::_Vector_impl_data" = type { ptr, ptr, ptr }
%"class.std::vector.15" = type { %"struct.std::_Vector_base.16" }
%"struct.std::_Vector_base.16" = type { %"struct.std::_Vector_base<cv::FileNode, std::allocator<cv::FileNode>>::_Vector_impl" }
%"struct.std::_Vector_base<cv::FileNode, std::allocator<cv::FileNode>>::_Vector_impl" = type { %"struct.std::_Vector_base<cv::FileNode, std::allocator<cv::FileNode>>::_Vector_impl_data" }
%"struct.std::_Vector_base<cv::FileNode, std::allocator<cv::FileNode>>::_Vector_impl_data" = type { ptr, ptr, ptr }
%"class.std::vector.20" = type { %"struct.std::_Vector_base.21" }
%"struct.std::_Vector_base.21" = type { %"struct.std::_Vector_base<cv::Ptr<std::vector<unsigned char>>, std::allocator<cv::Ptr<std::vector<unsigned char>>>>::_Vector_impl" }
%"struct.std::_Vector_base<cv::Ptr<std::vector<unsigned char>>, std::allocator<cv::Ptr<std::vector<unsigned char>>>>::_Vector_impl" = type { %"struct.std::_Vector_base<cv::Ptr<std::vector<unsigned char>>, std::allocator<cv::Ptr<std::vector<unsigned char>>>>::_Vector_impl_data" }
%"struct.std::_Vector_base<cv::Ptr<std::vector<unsigned char>>, std::allocator<cv::Ptr<std::vector<unsigned char>>>>::_Vector_impl_data" = type { ptr, ptr, ptr }
%"class.std::vector.25" = type { %"struct.std::_Vector_base.26" }
%"struct.std::_Vector_base.26" = type { %"struct.std::_Vector_base<unsigned char *, std::allocator<unsigned char *>>::_Vector_impl" }
%"struct.std::_Vector_base<unsigned char *, std::allocator<unsigned char *>>::_Vector_impl" = type { %"struct.std::_Vector_base<unsigned char *, std::allocator<unsigned char *>>::_Vector_impl_data" }
%"struct.std::_Vector_base<unsigned char *, std::allocator<unsigned char *>>::_Vector_impl_data" = type { ptr, ptr, ptr }
%"class.std::vector.30" = type { %"struct.std::_Vector_base.31" }
%"struct.std::_Vector_base.31" = type { %"struct.std::_Vector_base<unsigned long, std::allocator<unsigned long>>::_Vector_impl" }
%"struct.std::_Vector_base<unsigned long, std::allocator<unsigned long>>::_Vector_impl" = type { %"struct.std::_Vector_base<unsigned long, std::allocator<unsigned long>>::_Vector_impl_data" }
%"struct.std::_Vector_base<unsigned long, std::allocator<unsigned long>>::_Vector_impl_data" = type { ptr, ptr, ptr }
%"class.std::unordered_map" = type { %"class.std::_Hashtable" }
%"class.std::_Hashtable" = type { ptr, i64, %"struct.std::__detail::_Hash_node_base", i64, %"struct.std::__detail::_Prime_rehash_policy", ptr }
%"struct.std::__detail::_Hash_node_base" = type { ptr }
%"struct.std::__detail::_Prime_rehash_policy" = type { float, i64 }
%"class.std::vector" = type { %"struct.std::_Vector_base" }
%"struct.std::_Vector_base" = type { %"struct.std::_Vector_base<char, std::allocator<char>>::_Vector_impl" }
%"struct.std::_Vector_base<char, std::allocator<char>>::_Vector_impl" = type { %"struct.std::_Vector_base<char, std::allocator<char>>::_Vector_impl_data" }
%"struct.std::_Vector_base<char, std::allocator<char>>::_Vector_impl_data" = type { ptr, ptr, ptr }
%"class.cv::FileNode" = type { ptr, i64, i64 }

@_ZN2cv8FileNodeC1Ev = unnamed_addr alias void (ptr), ptr @_ZN2cv8FileNodeC2Ev
@_ZN2cv8FileNodeC1ERKS0_ = unnamed_addr alias void (ptr, ptr), ptr @_ZN2cv8FileNodeC2ERKS0_

; Function Attrs: mustprogress nounwind uwtable
define linkonce_odr hidden noundef nonnull align 8 dereferenceable(24) ptr @_ZNKSt6vectorIN2cv8FileNodeESaIS1_EEixEm(ptr noundef nonnull align 8 dereferenceable(24) %0, i64 noundef %1) #8 comdat align 2 {
  %3 = alloca ptr, align 8
  %4 = alloca i64, align 8
  store ptr %0, ptr %3, align 8, !tbaa !135
  store i64 %1, ptr %4, align 8, !tbaa !8
  %5 = load ptr, ptr %3, align 8
  %6 = getelementptr inbounds nuw %"struct.std::_Vector_base.16", ptr %5, i32 0, i32 0
  %7 = getelementptr inbounds nuw %"struct.std::_Vector_base<cv::FileNode, std::allocator<cv::FileNode>>::_Vector_impl_data", ptr %6, i32 0, i32 0
  %8 = load ptr, ptr %7, align 8, !tbaa !137
  %9 = load i64, ptr %4, align 8, !tbaa !8
  %10 = getelementptr inbounds nuw %"class.cv::FileNode", ptr %8, i64 %9
  ret ptr %10
}

; Function Attrs: mustprogress nounwind uwtable
define linkonce_odr hidden noundef i64 @_ZNKSt6vectorIN2cv8FileNodeESaIS1_EE4sizeEv(ptr noundef nonnull align 8 dereferenceable(24) %0) #8 comdat align 2 {
  %2 = alloca ptr, align 8
  store ptr %0, ptr %2, align 8, !tbaa !135
  %3 = load ptr, ptr %2, align 8
  %4 = getelementptr inbounds nuw %"struct.std::_Vector_base.16", ptr %3, i32 0, i32 0
  %5 = getelementptr inbounds nuw %"struct.std::_Vector_base<cv::FileNode, std::allocator<cv::FileNode>>::_Vector_impl_data", ptr %4, i32 0, i32 1
  %6 = load ptr, ptr %5, align 8, !tbaa !167
  %7 = getelementptr inbounds nuw %"struct.std::_Vector_base.16", ptr %3, i32 0, i32 0
  %8 = getelementptr inbounds nuw %"struct.std::_Vector_base<cv::FileNode, std::allocator<cv::FileNode>>::_Vector_impl_data", ptr %7, i32 0, i32 0
  %9 = load ptr, ptr %8, align 8, !tbaa !137
  %10 = ptrtoint ptr %6 to i64
  %11 = ptrtoint ptr %9 to i64
  %12 = sub i64 %10, %11
  %13 = sdiv exact i64 %12, 24
  ret i64 %13
}

; Function Attrs: mustprogress uwtable
define void @_ZNK2cv11FileStorage4Impl4rootEi(ptr dead_on_unwind noalias writable sret(%"class.cv::FileNode") align 8 %0, ptr noundef nonnull align 8 dereferenceable(700) %1, i32 noundef %2) #4 align 2 {
  %4 = alloca ptr, align 8
  %5 = alloca ptr, align 8
  %6 = alloca i32, align 4
  store ptr %0, ptr %4, align 8
  store ptr %1, ptr %5, align 8, !tbaa !38
  store i32 %2, ptr %6, align 4, !tbaa !11
  %7 = load ptr, ptr %5, align 8
  %8 = load i32, ptr %6, align 4, !tbaa !11
  %9 = icmp sge i32 %8, 0
  br i1 %9, label %10, label %21

10:                                               ; preds = %3
  %11 = load i32, ptr %6, align 4, !tbaa !11
  %12 = getelementptr inbounds nuw %"class.cv::FileStorage::Impl", ptr %7, i32 0, i32 33
  %13 = call noundef i64 @_ZNKSt6vectorIN2cv8FileNodeESaIS1_EE4sizeEv(ptr noundef nonnull align 8 dereferenceable(24) %12) #3
  %14 = trunc i64 %13 to i32
  %15 = icmp slt i32 %11, %14
  br i1 %15, label %16, label %21

16:                                               ; preds = %10
  %17 = getelementptr inbounds nuw %"class.cv::FileStorage::Impl", ptr %7, i32 0, i32 33
  %18 = load i32, ptr %6, align 4, !tbaa !11
  %19 = sext i32 %18 to i64
  %20 = call noundef nonnull align 8 dereferenceable(24) ptr @_ZNKSt6vectorIN2cv8FileNodeESaIS1_EEixEm(ptr noundef nonnull align 8 dereferenceable(24) %17, i64 noundef %19) #3
  call void @_ZN2cv8FileNodeC1ERKS0_(ptr noundef nonnull align 8 dereferenceable(24) %0, ptr noundef nonnull align 8 dereferenceable(24) %20)
  br label %22

21:                                               ; preds = %10, %3
  call void @_ZN2cv8FileNodeC1Ev(ptr noundef nonnull align 8 dereferenceable(24) %0)
  br label %22

22:                                               ; preds = %21, %16
  ret void
}