; Function Attrs: mustprogress uwtable
define void @_ZNK2cv11FileStorage4Impl4rootEi(ptr dead_on_unwind noalias writable sret(%"class.cv::FileNode") align 8 %0, ptr noundef nonnull readonly align 8 captures(none) dereferenceable(700) %1, i32 noundef %2) local_unnamed_addr #13 align 2 {
  %4 = icmp sgt i32 %2, -1
  br i1 %4, label %5, label %19

5:                                                ; preds = %3
  %6 = getelementptr inbounds nuw i8, ptr %1, i64 464
  %7 = getelementptr inbounds nuw i8, ptr %1, i64 472
  %8 = load ptr, ptr %7, align 8, !tbaa !107
  %9 = load ptr, ptr %6, align 8, !tbaa !106
  %10 = ptrtoint ptr %8 to i64
  %11 = ptrtoint ptr %9 to i64
  %12 = sub i64 %10, %11
  %13 = sdiv exact i64 %12, 24
  %14 = trunc i64 %13 to i32
  %15 = icmp slt i32 %2, %14
  br i1 %15, label %16, label %19

16:                                               ; preds = %5
  %17 = zext nneg i32 %2 to i64
  %18 = getelementptr inbounds nuw %"class.cv::FileNode", ptr %9, i64 %17
  tail call void @_ZN2cv8FileNodeC1ERKS0_(ptr noundef nonnull align 8 dereferenceable(24) %0, ptr noundef nonnull align 8 dereferenceable(24) %18)
  br label %20

19:                                               ; preds = %5, %3
  tail call void @_ZN2cv8FileNodeC1Ev(ptr noundef nonnull align 8 dereferenceable(24) %0)
  br label %20

20:                                               ; preds = %19, %16
  ret void
}